; ModuleID = '22/591.c'
source_filename = "22/591.c"
target datalayout = "e-m:e-p270:32:32-p271:32:32-p272:64:64-i64:64-f80:128-n8:16:32:64-S128"
target triple = "x86_64-pc-linux-gnu"

@.str = private unnamed_addr constant [3 x i8] c"%d\00", align 1
@.str.1 = private unnamed_addr constant [3 x i8] c"%c\00", align 1
@.str.2 = private unnamed_addr constant [4 x i8] c"No\0A\00", align 1
@.str.3 = private unnamed_addr constant [4 x i8] c"%d\0A\00", align 1

; Function Attrs: noinline nounwind uwtable
define dso_local void @main() #0 {
  %1 = alloca [300 x i8], align 16
  %2 = alloca i32, align 4
  %3 = alloca i32, align 4
  %4 = alloca [300 x i32], align 16
  %5 = alloca i32, align 4
  %6 = alloca i32, align 4
  %7 = alloca i32, align 4
  %8 = bitcast [300 x i8]* %1 to i8*
  call void @llvm.memset.p0i8.i64(i8* align 16 %8, i8 0, i64 300, i1 false)
  %9 = bitcast i8* %8 to <{ i8, [299 x i8] }>*
  %10 = getelementptr inbounds <{ i8, [299 x i8] }>, <{ i8, [299 x i8] }>* %9, i32 0, i32 0
  store i8 44, i8* %10, align 16
  store i32 0, i32* %7, align 4
  store i32 0, i32* %3, align 4
  store i32 0, i32* %2, align 4
  br label %11

11:                                               ; preds = %30, %0
  %12 = load i32, i32* %3, align 4
  %13 = sext i32 %12 to i64
  %14 = getelementptr inbounds [300 x i32], [300 x i32]* %4, i64 0, i64 %13
  %15 = call i32 (i8*, ...) @__isoc99_scanf(i8* getelementptr inbounds ([3 x i8], [3 x i8]* @.str, i64 0, i64 0), i32* %14)
  %16 = load i32, i32* %3, align 4
  %17 = sext i32 %16 to i64
  %18 = getelementptr inbounds [300 x i8], [300 x i8]* %1, i64 0, i64 %17
  %19 = call i32 (i8*, ...) @__isoc99_scanf(i8* getelementptr inbounds ([3 x i8], [3 x i8]* @.str.1, i64 0, i64 0), i8* %18)
  %20 = load i32, i32* %2, align 4
  %21 = add nsw i32 %20, 1
  store i32 %21, i32* %2, align 4
  %22 = load i32, i32* %3, align 4
  %23 = sext i32 %22 to i64
  %24 = getelementptr inbounds [300 x i8], [300 x i8]* %1, i64 0, i64 %23
  %25 = load i8, i8* %24, align 1
  %26 = sext i8 %25 to i32
  %27 = icmp eq i32 %26, 10
  br i1 %27, label %28, label %29

28:                                               ; preds = %11
  br label %33

29:                                               ; preds = %11
  br label %30

30:                                               ; preds = %29
  %31 = load i32, i32* %3, align 4
  %32 = add nsw i32 %31, 1
  store i32 %32, i32* %3, align 4
  br label %11

33:                                               ; preds = %28
  %34 = load i32, i32* %2, align 4
  %35 = icmp eq i32 %34, 1
  br i1 %35, label %36, label %38

36:                                               ; preds = %33
  %37 = call i32 (i8*, ...) @printf(i8* getelementptr inbounds ([4 x i8], [4 x i8]* @.str.2, i64 0, i64 0))
  br label %134

38:                                               ; preds = %33
  %39 = getelementptr inbounds [300 x i32], [300 x i32]* %4, i64 0, i64 0
  %40 = load i32, i32* %39, align 16
  store i32 %40, i32* %5, align 4
  store i32 1, i32* %3, align 4
  br label %41

41:                                               ; preds = %69, %38
  %42 = load i32, i32* %3, align 4
  %43 = load i32, i32* %2, align 4
  %44 = sub nsw i32 %43, 1
  %45 = icmp sle i32 %42, %44
  br i1 %45, label %46, label %72

46:                                               ; preds = %41
  %47 = load i32, i32* %5, align 4
  %48 = load i32, i32* %3, align 4
  %49 = sext i32 %48 to i64
  %50 = getelementptr inbounds [300 x i32], [300 x i32]* %4, i64 0, i64 %49
  %51 = load i32, i32* %50, align 4
  %52 = icmp slt i32 %47, %51
  br i1 %52, label %53, label %58

53:                                               ; preds = %46
  %54 = load i32, i32* %3, align 4
  %55 = sext i32 %54 to i64
  %56 = getelementptr inbounds [300 x i32], [300 x i32]* %4, i64 0, i64 %55
  %57 = load i32, i32* %56, align 4
  store i32 %57, i32* %5, align 4
  br label %58

58:                                               ; preds = %53, %46
  %59 = load i32, i32* %5, align 4
  %60 = load i32, i32* %3, align 4
  %61 = sext i32 %60 to i64
  %62 = getelementptr inbounds [300 x i32], [300 x i32]* %4, i64 0, i64 %61
  %63 = load i32, i32* %62, align 4
  %64 = icmp eq i32 %59, %63
  br i1 %64, label %65, label %68

65:                                               ; preds = %58
  %66 = load i32, i32* %7, align 4
  %67 = add nsw i32 %66, 1
  store i32 %67, i32* %7, align 4
  br label %68

68:                                               ; preds = %65, %58
  br label %69

69:                                               ; preds = %68
  %70 = load i32, i32* %3, align 4
  %71 = add nsw i32 %70, 1
  store i32 %71, i32* %3, align 4
  br label %41

72:                                               ; preds = %41
  %73 = load i32, i32* %7, align 4
  %74 = load i32, i32* %2, align 4
  %75 = sub nsw i32 %74, 1
  %76 = icmp eq i32 %73, %75
  br i1 %76, label %77, label %79

77:                                               ; preds = %72
  %78 = call i32 (i8*, ...) @printf(i8* getelementptr inbounds ([4 x i8], [4 x i8]* @.str.2, i64 0, i64 0))
  br label %133

79:                                               ; preds = %72
  store i32 0, i32* %3, align 4
  br label %80

80:                                               ; preds = %98, %79
  %81 = load i32, i32* %3, align 4
  %82 = load i32, i32* %2, align 4
  %83 = sub nsw i32 %82, 1
  %84 = icmp sle i32 %81, %83
  br i1 %84, label %85, label %101

85:                                               ; preds = %80
  %86 = load i32, i32* %5, align 4
  %87 = load i32, i32* %3, align 4
  %88 = sext i32 %87 to i64
  %89 = getelementptr inbounds [300 x i32], [300 x i32]* %4, i64 0, i64 %88
  %90 = load i32, i32* %89, align 4
  %91 = icmp ne i32 %86, %90
  br i1 %91, label %92, label %97

92:                                               ; preds = %85
  %93 = load i32, i32* %3, align 4
  %94 = sext i32 %93 to i64
  %95 = getelementptr inbounds [300 x i32], [300 x i32]* %4, i64 0, i64 %94
  %96 = load i32, i32* %95, align 4
  store i32 %96, i32* %6, align 4
  br label %97

97:                                               ; preds = %92, %85
  br label %98

98:                                               ; preds = %97
  %99 = load i32, i32* %3, align 4
  %100 = add nsw i32 %99, 1
  store i32 %100, i32* %3, align 4
  br label %80

101:                                              ; preds = %80
  store i32 0, i32* %3, align 4
  br label %102

102:                                              ; preds = %127, %101
  %103 = load i32, i32* %3, align 4
  %104 = load i32, i32* %2, align 4
  %105 = sub nsw i32 %104, 1
  %106 = icmp sle i32 %103, %105
  br i1 %106, label %107, label %130

107:                                              ; preds = %102
  %108 = load i32, i32* %5, align 4
  %109 = load i32, i32* %3, align 4
  %110 = sext i32 %109 to i64
  %111 = getelementptr inbounds [300 x i32], [300 x i32]* %4, i64 0, i64 %110
  %112 = load i32, i32* %111, align 4
  %113 = icmp sgt i32 %108, %112
  br i1 %113, label %114, label %126

114:                                              ; preds = %107
  %115 = load i32, i32* %6, align 4
  %116 = load i32, i32* %3, align 4
  %117 = sext i32 %116 to i64
  %118 = getelementptr inbounds [300 x i32], [300 x i32]* %4, i64 0, i64 %117
  %119 = load i32, i32* %118, align 4
  %120 = icmp sle i32 %115, %119
  br i1 %120, label %121, label %126

121:                                              ; preds = %114
  %122 = load i32, i32* %3, align 4
  %123 = sext i32 %122 to i64
  %124 = getelementptr inbounds [300 x i32], [300 x i32]* %4, i64 0, i64 %123
  %125 = load i32, i32* %124, align 4
  store i32 %125, i32* %6, align 4
  br label %126

126:                                              ; preds = %121, %114, %107
  br label %127

127:                                              ; preds = %126
  %128 = load i32, i32* %3, align 4
  %129 = add nsw i32 %128, 1
  store i32 %129, i32* %3, align 4
  br label %102

130:                                              ; preds = %102
  %131 = load i32, i32* %6, align 4
  %132 = call i32 (i8*, ...) @printf(i8* getelementptr inbounds ([4 x i8], [4 x i8]* @.str.3, i64 0, i64 0), i32 %131)
  br label %133

133:                                              ; preds = %130, %77
  br label %134

134:                                              ; preds = %133, %36
  ret void
}

; Function Attrs: argmemonly nounwind willreturn
declare void @llvm.memset.p0i8.i64(i8* nocapture writeonly, i8, i64, i1 immarg) #1

declare dso_local i32 @__isoc99_scanf(i8*, ...) #2

declare dso_local i32 @printf(i8*, ...) #2


!llvm.module.flags = !{!0}
!llvm.ident = !{!1}

!0 = !{i32 1, !"wchar_size", i32 4}
!1 = !{!"clang version 10.0.0-4ubuntu1 "}
